ccopy_reg
_reconstructor
p1
(csklearn.preprocessing.label
LabelEncoder
p2
c__builtin__
object
p3
NtRp4
(dp5
S'classes_'
p6
cnumpy.core.multiarray
_reconstruct
p7
(cnumpy
ndarray
p8
(I0
tS'b'
tRp9
(I1
(I3
tcnumpy
dtype
p10
(S'S5'
I0
I1
tRp11
(I3
S'|'
NNNI5
I1
I0
tbI00
S'Ana\x00\x00BrunoDois\x00'
tbsS'_sklearn_version'
p12
S'0.18.1'
p13
sb.