ccopy_reg
_reconstructor
p1
(csklearn.feature_extraction.text
CountVectorizer
p2
c__builtin__
object
p3
NtRp4
(dp5
S'decode_error'
p6
Vstrict
p7
sS'lowercase'
p8
I01
sS'stop_words'
p9
NsS'vocabulary'
p10
NsS'tokenizer'
p11
NsS'encoding'
p12
Vutf-8
p13
sS'token_pattern'
p14
V(?u)\u005cb\u005cw\u005cw+\u005cb
p15
sS'analyzer'
p16
Vword
p17
sS'binary'
p18
I00
sS'ngram_range'
p19
(I1
I1
tp20
sS'_sklearn_version'
p21
S'0.18.1'
p22
sS'max_df'
p23
F1
sS'min_df'
p24
I1
sS'max_features'
p25
NsS'input'
p26
Vcontent
p27
sS'strip_accents'
p28
NsS'dtype'
p29
cnumpy
int64
p30
sS'preprocessor'
p31
Nsb.